target datalayout = "e-m:e-p270:32:32-p271:32:32-p272:64:64-i64:64-i128:128-f80:128-n8:16:32:64-S128"
target triple = "x86_64-pc-linux-gnu"

%struct.SDL_CameraDriver = type { ptr, ptr, %struct.SDL_CameraDriverImpl, ptr, ptr, %struct.SDL_PendingCameraEvent, ptr, %struct.SDL_AtomicInt, %struct.SDL_AtomicInt }
%struct.SDL_CameraDriverImpl = type { ptr, ptr, ptr, ptr, ptr, ptr, ptr, ptr, i8 }
%struct.SDL_PendingCameraEvent = type { i32, i32, ptr }
%struct.SDL_AtomicInt = type { i32 }
%struct.CameraBootStrap = type { ptr, ptr, ptr, i8 }

@bootstrap = internal constant [3 x ptr] [ptr @V4L2_bootstrap, ptr @DUMMYCAMERA_bootstrap, ptr null], align 16
@camera_driver = internal global %struct.SDL_CameraDriver zeroinitializer, align 8
@.str.10 = private unnamed_addr constant [18 x i8] c"SDL_CAMERA_DRIVER\00", align 1
@.str.11 = private unnamed_addr constant [33 x i8] c"Camera driver '%s' not available\00", align 1
@.str.12 = private unnamed_addr constant [27 x i8] c"No available camera driver\00", align 1

; Function Attrs: nounwind uwtable
define internal void @CompleteCameraEntryPoints() #0 {
  br label %1

1:                                                ; preds = %0
  br label %2

2:                                                ; preds = %1
  br label %3

3:                                                ; preds = %2
  br label %4

4:                                                ; preds = %3
  br label %5

5:                                                ; preds = %4
  br label %6

6:                                                ; preds = %5
  br label %7

7:                                                ; preds = %6
  br label %8

8:                                                ; preds = %7
  br label %9

9:                                                ; preds = %8
  br label %10

10:                                               ; preds = %9
  br label %11

11:                                               ; preds = %10
  br label %12

12:                                               ; preds = %11
  br label %13

13:                                               ; preds = %12
  br label %14

14:                                               ; preds = %13
  ret void
}

; Function Attrs: nounwind uwtable
define hidden ptr @SDL_GetCurrentCameraDriver_REAL() #0 {
  %1 = load ptr, ptr @camera_driver, align 8
  ret ptr %1
}

; Function Attrs: nounwind uwtable
define hidden zeroext i1 @SDL_CameraInit(ptr noundef %0) #0 {
  %2 = alloca i1, align 1
  %3 = alloca ptr, align 8
  %4 = alloca ptr, align 8
  %5 = alloca i32, align 4
  %6 = alloca ptr, align 8
  %7 = alloca i8, align 1
  %8 = alloca i8, align 1
  %9 = alloca ptr, align 8
  %10 = alloca ptr, align 8
  %11 = alloca ptr, align 8
  %12 = alloca i32, align 4
  %13 = alloca i32, align 4
  store ptr %0, ptr %3, align 8
  %14 = call ptr @SDL_GetCurrentCameraDriver_REAL()
  %15 = icmp ne ptr %14, null
  br i1 %15, label %16, label %17

16:                                               ; preds = %1
  call void @SDL_QuitCamera()
  br label %17

17:                                               ; preds = %16, %1
  call void @llvm.lifetime.start.p0(i64 8, ptr %4) #7
  %18 = call ptr @SDL_CreateRWLock_REAL()
  store ptr %18, ptr %4, align 8
  %19 = load ptr, ptr %4, align 8
  %20 = icmp ne ptr %19, null
  br i1 %20, label %22, label %21

21:                                               ; preds = %17
  store i1 false, ptr %2, align 1
  store i32 1, ptr %5, align 4
  br label %205

22:                                               ; preds = %17
  call void @llvm.lifetime.start.p0(i64 8, ptr %6) #7
  %23 = call ptr @SDL_CreateHashTable(i32 noundef 0, i1 noundef zeroext false, ptr noundef @SDL_HashID, ptr noundef @SDL_KeyMatchID, ptr noundef @DestroyCameraHashItem, ptr noundef null)
  store ptr %23, ptr %6, align 8
  %24 = load ptr, ptr %6, align 8
  %25 = icmp ne ptr %24, null
  br i1 %25, label %28, label %26

26:                                               ; preds = %22
  %27 = load ptr, ptr %4, align 8
  call void @SDL_DestroyRWLock_REAL(ptr noundef %27)
  store i1 false, ptr %2, align 1
  store i32 1, ptr %5, align 4
  br label %204

28:                                               ; preds = %22
  %29 = load ptr, ptr %3, align 8
  %30 = icmp ne ptr %29, null
  br i1 %30, label %33, label %31

31:                                               ; preds = %28
  %32 = call ptr @SDL_GetHint_REAL(ptr noundef @.str.10)
  store ptr %32, ptr %3, align 8
  br label %33

33:                                               ; preds = %31, %28
  call void @llvm.lifetime.start.p0(i64 1, ptr %7) #7
  store i8 0, ptr %7, align 1
  call void @llvm.lifetime.start.p0(i64 1, ptr %8) #7
  store i8 0, ptr %8, align 1
  %34 = load ptr, ptr %3, align 8
  %35 = icmp ne ptr %34, null
  br i1 %35, label %36, label %133

36:                                               ; preds = %33
  %37 = load ptr, ptr %3, align 8
  %38 = load i8, ptr %37, align 1
  %39 = sext i8 %38 to i32
  %40 = icmp ne i32 %39, 0
  br i1 %40, label %41, label %133

41:                                               ; preds = %36
  call void @llvm.lifetime.start.p0(i64 8, ptr %9) #7
  %42 = load ptr, ptr %3, align 8
  %43 = call noalias ptr @SDL_strdup_REAL(ptr noundef %42)
  store ptr %43, ptr %9, align 8
  call void @llvm.lifetime.start.p0(i64 8, ptr %10) #7
  %44 = load ptr, ptr %9, align 8
  store ptr %44, ptr %10, align 8
  %45 = load ptr, ptr %9, align 8
  %46 = icmp ne ptr %45, null
  br i1 %46, label %50, label %47

47:                                               ; preds = %41
  %48 = load ptr, ptr %4, align 8
  call void @SDL_DestroyRWLock_REAL(ptr noundef %48)
  %49 = load ptr, ptr %6, align 8
  call void @SDL_DestroyHashTable(ptr noundef %49)
  store i1 false, ptr %2, align 1
  store i32 1, ptr %5, align 4
  br label %130

50:                                               ; preds = %41
  br label %51

51:                                               ; preds = %126, %50
  %52 = load ptr, ptr %10, align 8
  %53 = icmp ne ptr %52, null
  br i1 %53, label %54, label %63

54:                                               ; preds = %51
  %55 = load ptr, ptr %10, align 8
  %56 = load i8, ptr %55, align 1
  %57 = sext i8 %56 to i32
  %58 = icmp ne i32 %57, 0
  br i1 %58, label %59, label %63

59:                                               ; preds = %54
  %60 = load i8, ptr %7, align 1, !range !5, !noundef !6
  %61 = trunc i8 %60 to i1
  %62 = xor i1 %61, true
  br label %63

63:                                               ; preds = %59, %54, %51
  %64 = phi i1 [ false, %54 ], [ false, %51 ], [ %62, %59 ]
  br i1 %64, label %65, label %128

65:                                               ; preds = %63
  call void @llvm.lifetime.start.p0(i64 8, ptr %11) #7
  %66 = load ptr, ptr %10, align 8
  %67 = call ptr @SDL_strchr_REAL(ptr noundef %66, i32 noundef 44)
  store ptr %67, ptr %11, align 8
  %68 = load ptr, ptr %11, align 8
  %69 = icmp ne ptr %68, null
  br i1 %69, label %70, label %72

70:                                               ; preds = %65
  %71 = load ptr, ptr %11, align 8
  store i8 0, ptr %71, align 1
  br label %72

72:                                               ; preds = %70, %65
  call void @llvm.lifetime.start.p0(i64 4, ptr %12) #7
  store i32 0, ptr %12, align 4
  br label %73

73:                                               ; preds = %115, %72
  %74 = load i32, ptr %12, align 4
  %75 = sext i32 %74 to i64
  %76 = getelementptr inbounds [3 x ptr], ptr @bootstrap, i64 0, i64 %75
  %77 = load ptr, ptr %76, align 8
  %78 = icmp ne ptr %77, null
  br i1 %78, label %80, label %79

79:                                               ; preds = %73
  store i32 4, ptr %5, align 4
  br label %118

80:                                               ; preds = %73
  %81 = load i32, ptr %12, align 4
  %82 = sext i32 %81 to i64
  %83 = getelementptr inbounds [3 x ptr], ptr @bootstrap, i64 0, i64 %82
  %84 = load ptr, ptr %83, align 8
  %85 = getelementptr inbounds nuw %struct.CameraBootStrap, ptr %84, i32 0, i32 0
  %86 = load ptr, ptr %85, align 8
  %87 = load ptr, ptr %10, align 8
  %88 = call i32 @SDL_strcasecmp_REAL(ptr noundef %86, ptr noundef %87)
  %89 = icmp eq i32 %88, 0
  br i1 %89, label %90, label %114

90:                                               ; preds = %80
  store i8 1, ptr %8, align 1
  call void @llvm.memset.p0.i64(ptr align 8 @camera_driver, i8 0, i64 136, i1 false)
  store ptr getelementptr inbounds nuw (%struct.SDL_CameraDriver, ptr @camera_driver, i32 0, i32 5), ptr getelementptr inbounds nuw (%struct.SDL_CameraDriver, ptr @camera_driver, i32 0, i32 6), align 8
  %91 = load ptr, ptr %4, align 8
  store ptr %91, ptr getelementptr inbounds nuw (%struct.SDL_CameraDriver, ptr @camera_driver, i32 0, i32 3), align 8
  %92 = load ptr, ptr %6, align 8
  store ptr %92, ptr getelementptr inbounds nuw (%struct.SDL_CameraDriver, ptr @camera_driver, i32 0, i32 4), align 8
  %93 = load i32, ptr %12, align 4
  %94 = sext i32 %93 to i64
  %95 = getelementptr inbounds [3 x ptr], ptr @bootstrap, i64 0, i64 %94
  %96 = load ptr, ptr %95, align 8
  %97 = getelementptr inbounds nuw %struct.CameraBootStrap, ptr %96, i32 0, i32 2
  %98 = load ptr, ptr %97, align 8
  %99 = call zeroext i1 %98(ptr noundef getelementptr inbounds nuw (%struct.SDL_CameraDriver, ptr @camera_driver, i32 0, i32 2))
  br i1 %99, label %100, label %113

100:                                              ; preds = %90
  %101 = load i32, ptr %12, align 4
  %102 = sext i32 %101 to i64
  %103 = getelementptr inbounds [3 x ptr], ptr @bootstrap, i64 0, i64 %102
  %104 = load ptr, ptr %103, align 8
  %105 = getelementptr inbounds nuw %struct.CameraBootStrap, ptr %104, i32 0, i32 0
  %106 = load ptr, ptr %105, align 8
  store ptr %106, ptr @camera_driver, align 8
  %107 = load i32, ptr %12, align 4
  %108 = sext i32 %107 to i64
  %109 = getelementptr inbounds [3 x ptr], ptr @bootstrap, i64 0, i64 %108
  %110 = load ptr, ptr %109, align 8
  %111 = getelementptr inbounds nuw %struct.CameraBootStrap, ptr %110, i32 0, i32 1
  %112 = load ptr, ptr %111, align 8
  store ptr %112, ptr getelementptr inbounds nuw (%struct.SDL_CameraDriver, ptr @camera_driver, i32 0, i32 1), align 8
  store i8 1, ptr %7, align 1
  br label %113

113:                                              ; preds = %100, %90
  store i32 4, ptr %5, align 4
  br label %118

114:                                              ; preds = %80
  br label %115

115:                                              ; preds = %114
  %116 = load i32, ptr %12, align 4
  %117 = add nsw i32 %116, 1
  store i32 %117, ptr %12, align 4
  br label %73, !llvm.loop !23

118:                                              ; preds = %113, %79
  call void @llvm.lifetime.end.p0(i64 4, ptr %12) #7
  br label %119

119:                                              ; preds = %118
  %120 = load ptr, ptr %11, align 8
  %121 = icmp ne ptr %120, null
  br i1 %121, label %122, label %125

122:                                              ; preds = %119
  %123 = load ptr, ptr %11, align 8
  %124 = getelementptr inbounds i8, ptr %123, i64 1
  br label %126

125:                                              ; preds = %119
  br label %126

126:                                              ; preds = %125, %122
  %127 = phi ptr [ %124, %122 ], [ null, %125 ]
  store ptr %127, ptr %10, align 8
  call void @llvm.lifetime.end.p0(i64 8, ptr %11) #7
  br label %51, !llvm.loop !24

128:                                              ; preds = %63
  %129 = load ptr, ptr %9, align 8
  call void @SDL_free_REAL(ptr noundef %129)
  store i32 0, ptr %5, align 4
  br label %130

130:                                              ; preds = %128, %47
  call void @llvm.lifetime.end.p0(i64 8, ptr %10) #7
  call void @llvm.lifetime.end.p0(i64 8, ptr %9) #7
  %131 = load i32, ptr %5, align 4
  switch i32 %131, label %203 [
    i32 0, label %132
  ]

132:                                              ; preds = %130
  br label %183

133:                                              ; preds = %36, %33
  call void @llvm.lifetime.start.p0(i64 4, ptr %13) #7
  store i32 0, ptr %13, align 4
  br label %134

134:                                              ; preds = %179, %133
  %135 = load i8, ptr %7, align 1, !range !5, !noundef !6
  %136 = trunc i8 %135 to i1
  br i1 %136, label %143, label %137

137:                                              ; preds = %134
  %138 = load i32, ptr %13, align 4
  %139 = sext i32 %138 to i64
  %140 = getelementptr inbounds [3 x ptr], ptr @bootstrap, i64 0, i64 %139
  %141 = load ptr, ptr %140, align 8
  %142 = icmp ne ptr %141, null
  br label %143

143:                                              ; preds = %137, %134
  %144 = phi i1 [ false, %134 ], [ %142, %137 ]
  br i1 %144, label %146, label %145

145:                                              ; preds = %143
  store i32 7, ptr %5, align 4
  call void @llvm.lifetime.end.p0(i64 4, ptr %13) #7
  br label %182

146:                                              ; preds = %143
  %147 = load i32, ptr %13, align 4
  %148 = sext i32 %147 to i64
  %149 = getelementptr inbounds [3 x ptr], ptr @bootstrap, i64 0, i64 %148
  %150 = load ptr, ptr %149, align 8
  %151 = getelementptr inbounds nuw %struct.CameraBootStrap, ptr %150, i32 0, i32 3
  %152 = load i8, ptr %151, align 8, !range !5, !noundef !6
  %153 = trunc i8 %152 to i1
  br i1 %153, label %154, label %155

154:                                              ; preds = %146
  br label %179

155:                                              ; preds = %146
  store i8 1, ptr %8, align 1
  call void @llvm.memset.p0.i64(ptr align 8 @camera_driver, i8 0, i64 136, i1 false)
  store ptr getelementptr inbounds nuw (%struct.SDL_CameraDriver, ptr @camera_driver, i32 0, i32 5), ptr getelementptr inbounds nuw (%struct.SDL_CameraDriver, ptr @camera_driver, i32 0, i32 6), align 8
  %156 = load ptr, ptr %4, align 8
  store ptr %156, ptr getelementptr inbounds nuw (%struct.SDL_CameraDriver, ptr @camera_driver, i32 0, i32 3), align 8
  %157 = load ptr, ptr %6, align 8
  store ptr %157, ptr getelementptr inbounds nuw (%struct.SDL_CameraDriver, ptr @camera_driver, i32 0, i32 4), align 8
  %158 = load i32, ptr %13, align 4
  %159 = sext i32 %158 to i64
  %160 = getelementptr inbounds [3 x ptr], ptr @bootstrap, i64 0, i64 %159
  %161 = load ptr, ptr %160, align 8
  %162 = getelementptr inbounds nuw %struct.CameraBootStrap, ptr %161, i32 0, i32 2
  %163 = load ptr, ptr %162, align 8
  %164 = call zeroext i1 %163(ptr noundef getelementptr inbounds nuw (%struct.SDL_CameraDriver, ptr @camera_driver, i32 0, i32 2))
  br i1 %164, label %165, label %178

165:                                              ; preds = %155
  %166 = load i32, ptr %13, align 4
  %167 = sext i32 %166 to i64
  %168 = getelementptr inbounds [3 x ptr], ptr @bootstrap, i64 0, i64 %167
  %169 = load ptr, ptr %168, align 8
  %170 = getelementptr inbounds nuw %struct.CameraBootStrap, ptr %169, i32 0, i32 0
  %171 = load ptr, ptr %170, align 8
  store ptr %171, ptr @camera_driver, align 8
  %172 = load i32, ptr %13, align 4
  %173 = sext i32 %172 to i64
  %174 = getelementptr inbounds [3 x ptr], ptr @bootstrap, i64 0, i64 %173
  %175 = load ptr, ptr %174, align 8
  %176 = getelementptr inbounds nuw %struct.CameraBootStrap, ptr %175, i32 0, i32 1
  %177 = load ptr, ptr %176, align 8
  store ptr %177, ptr getelementptr inbounds nuw (%struct.SDL_CameraDriver, ptr @camera_driver, i32 0, i32 1), align 8
  store i8 1, ptr %7, align 1
  br label %178

178:                                              ; preds = %165, %155
  br label %179

179:                                              ; preds = %178, %154
  %180 = load i32, ptr %13, align 4
  %181 = add nsw i32 %180, 1
  store i32 %181, ptr %13, align 4
  br label %134, !llvm.loop !25

182:                                              ; preds = %145
  br label %183

183:                                              ; preds = %182, %132
  %184 = load i8, ptr %7, align 1, !range !5, !noundef !6
  %185 = trunc i8 %184 to i1
  br i1 %185, label %201, label %186

186:                                              ; preds = %183
  %187 = load i8, ptr %8, align 1, !range !5, !noundef !6
  %188 = trunc i8 %187 to i1
  br i1 %188, label %198, label %189

189:                                              ; preds = %186
  %190 = load ptr, ptr %3, align 8
  %191 = icmp ne ptr %190, null
  br i1 %191, label %192, label %195

192:                                              ; preds = %189
  %193 = load ptr, ptr %3, align 8
  %194 = call zeroext i1 (ptr, ...) @SDL_SetError_REAL(ptr noundef @.str.11, ptr noundef %193)
  br label %197

195:                                              ; preds = %189
  %196 = call zeroext i1 (ptr, ...) @SDL_SetError_REAL(ptr noundef @.str.12)
  br label %197

197:                                              ; preds = %195, %192
  br label %198

198:                                              ; preds = %197, %186
  call void @llvm.memset.p0.i64(ptr align 8 @camera_driver, i8 0, i64 136, i1 false)
  %199 = load ptr, ptr %4, align 8
  call void @SDL_DestroyRWLock_REAL(ptr noundef %199)
  %200 = load ptr, ptr %6, align 8
  call void @SDL_DestroyHashTable(ptr noundef %200)
  store i1 false, ptr %2, align 1
  store i32 1, ptr %5, align 4
  br label %203

201:                                              ; preds = %183
  call void @CompleteCameraEntryPoints()
  %202 = load ptr, ptr getelementptr inbounds nuw (%struct.SDL_CameraDriver, ptr @camera_driver, i32 0, i32 2), align 8
  call void %202()
  store i1 true, ptr %2, align 1
  store i32 1, ptr %5, align 4
  br label %203

203:                                              ; preds = %201, %198, %130
  call void @llvm.lifetime.end.p0(i64 1, ptr %8) #7
  call void @llvm.lifetime.end.p0(i64 1, ptr %7) #7
  br label %204

204:                                              ; preds = %203, %26
  call void @llvm.lifetime.end.p0(i64 8, ptr %6) #7
  br label %205

205:                                              ; preds = %204, %21
  call void @llvm.lifetime.end.p0(i64 8, ptr %4) #7
  %206 = load i1, ptr %2, align 1
  ret i1 %206
}