; Function Attrs: nounwind uwtable
define hidden noundef zeroext i1 @SDL_CameraInit(ptr noundef %0) local_unnamed_addr #1 {
  %2 = load ptr, ptr @camera_driver, align 8
  %.not = icmp eq ptr %2, null
  br i1 %.not, label %4, label %3

3:                                                ; preds = %1
  tail call void @SDL_QuitCamera()
  br label %4

4:                                                ; preds = %3, %1
  %5 = tail call ptr @SDL_CreateRWLock_REAL() #11
  %.not71 = icmp eq ptr %5, null
  br i1 %.not71, label %59, label %6

6:                                                ; preds = %4
  %7 = tail call ptr @SDL_CreateHashTable(i32 noundef 0, i1 noundef zeroext false, ptr noundef nonnull @SDL_HashID, ptr noundef nonnull @SDL_KeyMatchID, ptr noundef nonnull @DestroyCameraHashItem, ptr noundef null) #11
  %.not72 = icmp eq ptr %7, null
  br i1 %.not72, label %8, label %9

8:                                                ; preds = %6
  tail call void @SDL_DestroyRWLock_REAL(ptr noundef nonnull %5) #11
  br label %59

9:                                                ; preds = %6
  %.not73 = icmp eq ptr %0, null
  br i1 %.not73, label %10, label %.thread

10:                                               ; preds = %9
  %11 = tail call ptr @SDL_GetHint_REAL(ptr noundef nonnull @.str.10) #11
  %.not74 = icmp eq ptr %11, null
  br i1 %.not74, label %37, label %.thread

.thread:                                          ; preds = %9, %10
  %.05284 = phi ptr [ %11, %10 ], [ %0, %9 ]
  %12 = load i8, ptr %.05284, align 1
  %.not75 = icmp eq i8 %12, 0
  br i1 %.not75, label %37, label %13

13:                                               ; preds = %.thread
  %14 = tail call noalias ptr @SDL_strdup_REAL(ptr noundef nonnull %.05284) #11
  %.not77.not = icmp eq ptr %14, null
  br i1 %.not77.not, label %.thread90, label %select.unfold.preheader

.thread90:                                        ; preds = %13
  tail call void @SDL_DestroyRWLock_REAL(ptr noundef nonnull %5) #11
  tail call void @SDL_DestroyHashTable(ptr noundef nonnull %7) #11
  br label %59

select.unfold.preheader:                          ; preds = %13, %select.unfold
  %.051109 = phi ptr [ %36, %select.unfold ], [ %14, %13 ]
  %.154108 = phi i1 [ %.255, %select.unfold ], [ false, %13 ]
  %.158107 = phi i8 [ %.259, %select.unfold ], [ 0, %13 ]
  %15 = load i8, ptr %.051109, align 1
  %16 = icmp eq i8 %15, 0
  %17 = trunc nuw i8 %.158107 to i1
  %or.cond.not = select i1 %16, i1 true, i1 %17
  br i1 %or.cond.not, label %.critedge2, label %18

18:                                               ; preds = %select.unfold.preheader
  %19 = tail call ptr @SDL_strchr_REAL(ptr noundef nonnull %.051109, i32 noundef 44) #11
  %.not80 = icmp eq ptr %19, null
  br i1 %.not80, label %.preheader, label %20

20:                                               ; preds = %18
  store i8 0, ptr %19, align 1
  br label %.preheader

.preheader:                                       ; preds = %20, %18
  br label %22

21:                                               ; preds = %22
  %indvars.iv.next = add nuw nsw i64 %indvars.iv, 1
  %.not81 = icmp eq i64 %indvars.iv.next, 2
  br i1 %.not81, label %select.unfold, label %22, !llvm.loop !23

22:                                               ; preds = %.preheader, %21
  %indvars.iv = phi i64 [ %indvars.iv.next, %21 ], [ 0, %.preheader ]
  %23 = getelementptr inbounds nuw [3 x ptr], ptr @bootstrap, i64 0, i64 %indvars.iv
  %24 = load ptr, ptr %23, align 8
  %25 = load ptr, ptr %24, align 8
  %26 = tail call i32 @SDL_strcasecmp_REAL(ptr noundef %25, ptr noundef nonnull %.051109) #11
  %27 = icmp eq i32 %26, 0
  br i1 %27, label %28, label %21

28:                                               ; preds = %22
  tail call void @llvm.memset.p0.i64(ptr noundef nonnull align 8 dereferenceable(136) @camera_driver, i8 0, i64 136, i1 false)
  store ptr getelementptr inbounds nuw (i8, ptr @camera_driver, i64 104), ptr getelementptr inbounds nuw (i8, ptr @camera_driver, i64 120), align 8
  store ptr %5, ptr getelementptr inbounds nuw (i8, ptr @camera_driver, i64 88), align 8
  store ptr %7, ptr getelementptr inbounds nuw (i8, ptr @camera_driver, i64 96), align 8
  %29 = getelementptr inbounds nuw i8, ptr %24, i64 16
  %30 = load ptr, ptr %29, align 8
  %31 = tail call zeroext i1 %30(ptr noundef nonnull getelementptr inbounds nuw (i8, ptr @camera_driver, i64 16)) #11
  br i1 %31, label %32, label %select.unfold

32:                                               ; preds = %28
  %33 = load ptr, ptr %24, align 8
  store ptr %33, ptr @camera_driver, align 8
  %34 = getelementptr inbounds nuw i8, ptr %24, i64 8
  %35 = load ptr, ptr %34, align 8
  store ptr %35, ptr getelementptr inbounds nuw (i8, ptr @camera_driver, i64 8), align 8
  br label %select.unfold

select.unfold:                                    ; preds = %21, %28, %32
  %.259 = phi i8 [ 1, %32 ], [ %.158107, %28 ], [ %.158107, %21 ]
  %.255 = phi i1 [ true, %32 ], [ true, %28 ], [ %.154108, %21 ]
  %36 = getelementptr inbounds nuw i8, ptr %19, i64 1
  br i1 %.not80, label %select.unfold..critedge2_crit_edge, label %select.unfold.preheader

select.unfold..critedge2_crit_edge:               ; preds = %select.unfold
  %.pre = trunc nuw i8 %.259 to i1
  tail call void @SDL_free_REAL(ptr noundef nonnull %14) #11
  br i1 %.pre, label %.critedge2.thread, label %.critedge2.thread97

37:                                               ; preds = %.thread, %10
  %.not7489 = phi i1 [ false, %.thread ], [ true, %10 ]
  %.05286 = phi ptr [ %.05284, %.thread ], [ null, %10 ]
  br label %38

38:                                               ; preds = %37, %48
  %.4110134 = phi i1 [ false, %37 ], [ %.5, %48 ]
  %indvars.iv115133 = phi i64 [ 0, %37 ], [ %indvars.iv.next116, %48 ]
  %39 = getelementptr inbounds nuw [3 x ptr], ptr @bootstrap, i64 0, i64 %indvars.iv115133
  %40 = load ptr, ptr %39, align 8
  %41 = getelementptr inbounds nuw i8, ptr %40, i64 24
  %42 = load i8, ptr %41, align 8, !range !7, !noundef !8
  %43 = trunc nuw i8 %42 to i1
  br i1 %43, label %48, label %44

44:                                               ; preds = %38
  tail call void @llvm.memset.p0.i64(ptr noundef nonnull align 8 dereferenceable(136) @camera_driver, i8 0, i64 136, i1 false)
  store ptr getelementptr inbounds nuw (i8, ptr @camera_driver, i64 104), ptr getelementptr inbounds nuw (i8, ptr @camera_driver, i64 120), align 8
  store ptr %5, ptr getelementptr inbounds nuw (i8, ptr @camera_driver, i64 88), align 8
  store ptr %7, ptr getelementptr inbounds nuw (i8, ptr @camera_driver, i64 96), align 8
  %45 = getelementptr inbounds nuw i8, ptr %40, i64 16
  %46 = load ptr, ptr %45, align 8
  %47 = tail call zeroext i1 %46(ptr noundef nonnull getelementptr inbounds nuw (i8, ptr @camera_driver, i64 16)) #11
  br i1 %47, label %.critedge2.thread.loopexit, label %48

48:                                               ; preds = %44, %38
  %.5 = phi i1 [ %.4110134, %38 ], [ true, %44 ]
  %indvars.iv.next116 = add nuw nsw i64 %indvars.iv115133, 1
  %.not76 = icmp eq i64 %indvars.iv.next116, 2
  br i1 %.not76, label %.critedge2.thread97, label %38, !llvm.loop !24

.critedge2:                                       ; preds = %select.unfold.preheader
  tail call void @SDL_free_REAL(ptr noundef nonnull %14) #11
  br i1 %17, label %.critedge2.thread, label %.critedge2.thread97

.critedge2.thread97:                              ; preds = %48, %select.unfold..critedge2_crit_edge, %.critedge2
  %.356104 = phi i1 [ %.154108, %.critedge2 ], [ %.255, %select.unfold..critedge2_crit_edge ], [ %.5, %48 ]
  %.05285103 = phi ptr [ %.05284, %.critedge2 ], [ %.05284, %select.unfold..critedge2_crit_edge ], [ %.05286, %48 ]
  %.not7487102 = phi i1 [ false, %.critedge2 ], [ false, %select.unfold..critedge2_crit_edge ], [ %.not7489, %48 ]
  br i1 %.356104, label %54, label %49

49:                                               ; preds = %.critedge2.thread97
  br i1 %.not7487102, label %52, label %50

50:                                               ; preds = %49
  %51 = tail call zeroext i1 (ptr, ...) @SDL_SetError_REAL(ptr noundef nonnull @.str.11, ptr noundef nonnull %.05285103) #11
  br label %54

52:                                               ; preds = %49
  %53 = tail call zeroext i1 (ptr, ...) @SDL_SetError_REAL(ptr noundef nonnull @.str.12) #11
  br label %54

54:                                               ; preds = %50, %52, %.critedge2.thread97
  tail call void @llvm.memset.p0.i64(ptr noundef nonnull align 8 dereferenceable(136) @camera_driver, i8 0, i64 136, i1 false)
  tail call void @SDL_DestroyRWLock_REAL(ptr noundef nonnull %5) #11
  tail call void @SDL_DestroyHashTable(ptr noundef nonnull %7) #11
  br label %59

.critedge2.thread.loopexit:                       ; preds = %44
  %55 = load ptr, ptr %40, align 8
  store ptr %55, ptr @camera_driver, align 8
  %56 = getelementptr inbounds nuw i8, ptr %40, i64 8
  %57 = load ptr, ptr %56, align 8
  store ptr %57, ptr getelementptr inbounds nuw (i8, ptr @camera_driver, i64 8), align 8
  br label %.critedge2.thread

.critedge2.thread:                                ; preds = %select.unfold..critedge2_crit_edge, %.critedge2.thread.loopexit, %.critedge2
  %58 = load ptr, ptr getelementptr inbounds nuw (i8, ptr @camera_driver, i64 16), align 8
  tail call void %58() #11
  br label %59

59:                                               ; preds = %.thread90, %8, %.critedge2.thread, %54, %4
  %.050 = phi i1 [ false, %4 ], [ false, %8 ], [ true, %.critedge2.thread ], [ false, %54 ], [ false, %.thread90 ]
  ret i1 %.050
}